; Function Attrs: mustprogress uwtable
define internal void @_ZN7rocksdb12_GLOBAL__N_112SimCacheImpl17ApplyToAllEntriesERKSt8functionIFvRKNS_5SliceEPvmPKNS_5Cache15CacheItemHelperEEERKNS7_24ApplyToAllEntriesOptionsE(ptr noundef nonnull readonly align 8 captures(none) dereferenceable(216) %0, ptr noundef nonnull align 1 %1, ptr noundef nonnull align 8 dereferenceable(8) %2) unnamed_addr #4 align 2 {
  %4 = getelementptr inbounds nuw i8, ptr %0, i64 80
  %5 = load ptr, ptr %4, align 8, !tbaa !45
  %6 = load ptr, ptr %5, align 8, !tbaa !32
  %7 = getelementptr inbounds nuw i8, ptr %6, i64 328
  %8 = load ptr, ptr %7, align 8
  tail call void %8(ptr noundef nonnull align 8 dereferenceable(80) %5, ptr noundef nonnull align 1 %1, ptr noundef nonnull align 8 dereferenceable(8) %2)
  ret void
}